target datalayout = "e-m:e-p270:32:32-p271:32:32-p272:64:64-i64:64-i128:128-f80:128-n8:16:32:64-S128"
target triple = "x86_64-pc-linux-gnu"

%"class.pstd::optional.10" = type { %"union.std::aligned_storage<112, 8>::type", i8, [7 x i8] }
%"union.std::aligned_storage<112, 8>::type" = type { [112 x i8] }
%"struct.pbrt::CameraSample" = type { %"class.pbrt::Point2", %"class.pbrt::Point2", float, float }
%"class.pbrt::Point2" = type { %"class.pbrt::Tuple2" }
%"class.pbrt::Tuple2" = type { float, float }
%class.anon = type { ptr, ptr }
%"class.pbrt::TaggedPointer" = type { i64 }
%"class.pbrt::Camera" = type { %"class.pbrt::TaggedPointer" }

; Function Attrs: mustprogress nounwind uwtable
define linkonce_odr dso_local void @_ZN4pbrt13TaggedPointerIJNS_17PerspectiveCameraENS_18OrthographicCameraENS_15SphericalCameraENS_15RealisticCameraEEEC2IKS4_EEPT_(ptr noundef nonnull align 8 dereferenceable(8) %0, ptr noundef %1) unnamed_addr #6 comdat align 2 {
  %3 = alloca ptr, align 8
  %4 = alloca ptr, align 8
  %5 = alloca i64, align 8
  %6 = alloca i32, align 4
  store ptr %0, ptr %3, align 8, !tbaa !55
  store ptr %1, ptr %4, align 8, !tbaa !197
  %7 = load ptr, ptr %3, align 8
  %8 = getelementptr inbounds nuw %"class.pbrt::TaggedPointer", ptr %7, i32 0, i32 0
  store i64 0, ptr %8, align 8, !tbaa !75
  call void @llvm.lifetime.start.p0(i64 8, ptr %5) #15
  %9 = load ptr, ptr %4, align 8, !tbaa !197
  %10 = ptrtoint ptr %9 to i64
  store i64 %10, ptr %5, align 8, !tbaa !165
  br label %11

11:                                               ; preds = %2
  br label %12

12:                                               ; preds = %11
  br label %13

13:                                               ; preds = %12
  call void @llvm.lifetime.start.p0(i64 4, ptr %6) #15
  store i32 4, ptr %6, align 4, !tbaa !48
  %14 = load i64, ptr %5, align 8, !tbaa !165
  %15 = or i64 %14, 576460752303423488
  %16 = getelementptr inbounds nuw %"class.pbrt::TaggedPointer", ptr %7, i32 0, i32 0
  store i64 %15, ptr %16, align 8, !tbaa !75
  call void @llvm.lifetime.end.p0(i64 4, ptr %6) #15
  call void @llvm.lifetime.end.p0(i64 8, ptr %5) #15
  ret void
}

; Function Attrs: mustprogress nounwind uwtable
define linkonce_odr dso_local void @_ZN4pbrt13TaggedPointerIJNS_17PerspectiveCameraENS_18OrthographicCameraENS_15SphericalCameraENS_15RealisticCameraEEEC2IKS3_EEPT_(ptr noundef nonnull align 8 dereferenceable(8) %0, ptr noundef %1) unnamed_addr #6 comdat align 2 {
  %3 = alloca ptr, align 8
  %4 = alloca ptr, align 8
  %5 = alloca i64, align 8
  %6 = alloca i32, align 4
  store ptr %0, ptr %3, align 8, !tbaa !55
  store ptr %1, ptr %4, align 8, !tbaa !201
  %7 = load ptr, ptr %3, align 8
  %8 = getelementptr inbounds nuw %"class.pbrt::TaggedPointer", ptr %7, i32 0, i32 0
  store i64 0, ptr %8, align 8, !tbaa !75
  call void @llvm.lifetime.start.p0(i64 8, ptr %5) #15
  %9 = load ptr, ptr %4, align 8, !tbaa !201
  %10 = ptrtoint ptr %9 to i64
  store i64 %10, ptr %5, align 8, !tbaa !165
  br label %11

11:                                               ; preds = %2
  br label %12

12:                                               ; preds = %11
  br label %13

13:                                               ; preds = %12
  call void @llvm.lifetime.start.p0(i64 4, ptr %6) #15
  store i32 3, ptr %6, align 4, !tbaa !48
  %14 = load i64, ptr %5, align 8, !tbaa !165
  %15 = or i64 %14, 432345564227567616
  %16 = getelementptr inbounds nuw %"class.pbrt::TaggedPointer", ptr %7, i32 0, i32 0
  store i64 %15, ptr %16, align 8, !tbaa !75
  call void @llvm.lifetime.end.p0(i64 4, ptr %6) #15
  call void @llvm.lifetime.end.p0(i64 8, ptr %5) #15
  ret void
}

; Function Attrs: inlinehint mustprogress uwtable
define linkonce_odr dso_local void @_ZN4pbrt6CameraCI2NS_13TaggedPointerIJNS_17PerspectiveCameraENS_18OrthographicCameraENS_15SphericalCameraENS_15RealisticCameraEEEEIKS5_EEPT_(ptr noundef nonnull align 8 dereferenceable(8) %0, ptr noundef %1) unnamed_addr #10 comdat align 2 {
  %3 = alloca ptr, align 8
  %4 = alloca ptr, align 8
  store ptr %0, ptr %3, align 8, !tbaa !49
  store ptr %1, ptr %4, align 8, !tbaa !197
  %5 = load ptr, ptr %3, align 8
  %6 = load ptr, ptr %4, align 8, !tbaa !197
  call void @_ZN4pbrt13TaggedPointerIJNS_17PerspectiveCameraENS_18OrthographicCameraENS_15SphericalCameraENS_15RealisticCameraEEEC2IKS4_EEPT_(ptr noundef nonnull align 8 dereferenceable(8) %5, ptr noundef %6)
  ret void
}

; Function Attrs: inlinehint mustprogress uwtable
define linkonce_odr dso_local void @_ZN4pbrt6CameraCI2NS_13TaggedPointerIJNS_17PerspectiveCameraENS_18OrthographicCameraENS_15SphericalCameraENS_15RealisticCameraEEEEIKS4_EEPT_(ptr noundef nonnull align 8 dereferenceable(8) %0, ptr noundef %1) unnamed_addr #10 comdat align 2 {
  %3 = alloca ptr, align 8
  %4 = alloca ptr, align 8
  store ptr %0, ptr %3, align 8, !tbaa !49
  store ptr %1, ptr %4, align 8, !tbaa !201
  %5 = load ptr, ptr %3, align 8
  %6 = load ptr, ptr %4, align 8, !tbaa !201
  call void @_ZN4pbrt13TaggedPointerIJNS_17PerspectiveCameraENS_18OrthographicCameraENS_15SphericalCameraENS_15RealisticCameraEEEC2IKS3_EEPT_(ptr noundef nonnull align 8 dereferenceable(8) %5, ptr noundef %6)
  ret void
}

; Function Attrs: mustprogress uwtable
define linkonce_odr dso_local void @_ZNK4pbrt15RealisticCamera23GenerateRayDifferentialENS_12CameraSampleERNS_18SampledWavelengthsE(ptr dead_on_unwind noalias writable sret(%"class.pstd::optional.10") align 8 %0, ptr noundef nonnull align 8 dereferenceable(1128) %1, ptr noundef byval(%"struct.pbrt::CameraSample") align 8 %2, ptr noundef nonnull align 4 dereferenceable(32) %3) #1 comdat align 2 {
  %5 = alloca ptr, align 8
  %6 = alloca ptr, align 8
  %7 = alloca ptr, align 8
  %8 = alloca %"class.pbrt::Camera", align 8
  %9 = alloca %"struct.pbrt::CameraSample", align 8
  store ptr %0, ptr %5, align 8
  store ptr %1, ptr %6, align 8, !tbaa !197
  store ptr %3, ptr %7, align 8, !tbaa !51
  %10 = load ptr, ptr %6, align 8
  call void @_ZN4pbrt6CameraCI2NS_13TaggedPointerIJNS_17PerspectiveCameraENS_18OrthographicCameraENS_15SphericalCameraENS_15RealisticCameraEEEEIKS5_EEPT_(ptr noundef nonnull align 8 dereferenceable(8) %8, ptr noundef %10)
  call void @llvm.memcpy.p0.p0.i64(ptr align 4 %9, ptr align 8 %2, i64 24, i1 false)
  %11 = load ptr, ptr %7, align 8, !tbaa !51
  call void @_ZN4pbrt10CameraBase23GenerateRayDifferentialENS_6CameraENS_12CameraSampleERNS_18SampledWavelengthsE(ptr dead_on_unwind writable sret(%"class.pstd::optional.10") align 8 %0, ptr noundef %8, ptr noundef byval(%"struct.pbrt::CameraSample") align 8 %9, ptr noundef nonnull align 4 dereferenceable(32) %11)
  ret void
}

; Function Attrs: mustprogress uwtable
define linkonce_odr dso_local void @_ZNK4pbrt15SphericalCamera23GenerateRayDifferentialENS_12CameraSampleERNS_18SampledWavelengthsE(ptr dead_on_unwind noalias writable sret(%"class.pstd::optional.10") align 8 %0, ptr noundef nonnull align 8 dereferenceable(900) %1, ptr noundef byval(%"struct.pbrt::CameraSample") align 8 %2, ptr noundef nonnull align 4 dereferenceable(32) %3) #1 comdat align 2 {
  %5 = alloca ptr, align 8
  %6 = alloca ptr, align 8
  %7 = alloca ptr, align 8
  %8 = alloca %"class.pbrt::Camera", align 8
  %9 = alloca %"struct.pbrt::CameraSample", align 8
  store ptr %0, ptr %5, align 8
  store ptr %1, ptr %6, align 8, !tbaa !201
  store ptr %3, ptr %7, align 8, !tbaa !51
  %10 = load ptr, ptr %6, align 8
  call void @_ZN4pbrt6CameraCI2NS_13TaggedPointerIJNS_17PerspectiveCameraENS_18OrthographicCameraENS_15SphericalCameraENS_15RealisticCameraEEEEIKS4_EEPT_(ptr noundef nonnull align 8 dereferenceable(8) %8, ptr noundef %10)
  call void @llvm.memcpy.p0.p0.i64(ptr align 4 %9, ptr align 8 %2, i64 24, i1 false)
  %11 = load ptr, ptr %7, align 8, !tbaa !51
  call void @_ZN4pbrt10CameraBase23GenerateRayDifferentialENS_6CameraENS_12CameraSampleERNS_18SampledWavelengthsE(ptr dead_on_unwind writable sret(%"class.pstd::optional.10") align 8 %0, ptr noundef %8, ptr noundef byval(%"struct.pbrt::CameraSample") align 8 %9, ptr noundef nonnull align 4 dereferenceable(32) %11)
  ret void
}

; Function Attrs: inlinehint mustprogress uwtable
define internal void @"_ZZNK4pbrt6Camera23GenerateRayDifferentialENS_12CameraSampleERNS_18SampledWavelengthsEENK3$_0clIPKNS_15RealisticCameraEEEDaT_"(ptr dead_on_unwind noalias writable sret(%"class.pstd::optional.10") align 8 %0, ptr noundef nonnull align 8 dereferenceable(16) %1, ptr noundef %2) #10 align 2 {
  %4 = alloca ptr, align 8
  %5 = alloca ptr, align 8
  %6 = alloca ptr, align 8
  %7 = alloca %"struct.pbrt::CameraSample", align 8
  store ptr %0, ptr %4, align 8
  store ptr %1, ptr %5, align 8, !tbaa !57
  store ptr %2, ptr %6, align 8, !tbaa !197
  %8 = load ptr, ptr %5, align 8
  %9 = load ptr, ptr %6, align 8, !tbaa !197
  %10 = getelementptr inbounds nuw %class.anon, ptr %8, i32 0, i32 0
  %11 = load ptr, ptr %10, align 8, !tbaa !412
  call void @llvm.memcpy.p0.p0.i64(ptr align 4 %7, ptr align 4 %11, i64 24, i1 false)
  %12 = getelementptr inbounds nuw %class.anon, ptr %8, i32 0, i32 1
  %13 = load ptr, ptr %12, align 8, !tbaa !414
  call void @_ZNK4pbrt15RealisticCamera23GenerateRayDifferentialENS_12CameraSampleERNS_18SampledWavelengthsE(ptr dead_on_unwind writable sret(%"class.pstd::optional.10") align 8 %0, ptr noundef nonnull align 8 dereferenceable(1128) %9, ptr noundef byval(%"struct.pbrt::CameraSample") align 8 %7, ptr noundef nonnull align 4 dereferenceable(32) %13)
  ret void
}

; Function Attrs: inlinehint mustprogress uwtable
define internal void @"_ZZNK4pbrt6Camera23GenerateRayDifferentialENS_12CameraSampleERNS_18SampledWavelengthsEENK3$_0clIPKNS_15SphericalCameraEEEDaT_"(ptr dead_on_unwind noalias writable sret(%"class.pstd::optional.10") align 8 %0, ptr noundef nonnull align 8 dereferenceable(16) %1, ptr noundef %2) #10 align 2 {
  %4 = alloca ptr, align 8
  %5 = alloca ptr, align 8
  %6 = alloca ptr, align 8
  %7 = alloca %"struct.pbrt::CameraSample", align 8
  store ptr %0, ptr %4, align 8
  store ptr %1, ptr %5, align 8, !tbaa !57
  store ptr %2, ptr %6, align 8, !tbaa !201
  %8 = load ptr, ptr %5, align 8
  %9 = load ptr, ptr %6, align 8, !tbaa !201
  %10 = getelementptr inbounds nuw %class.anon, ptr %8, i32 0, i32 0
  %11 = load ptr, ptr %10, align 8, !tbaa !412
  call void @llvm.memcpy.p0.p0.i64(ptr align 4 %7, ptr align 4 %11, i64 24, i1 false)
  %12 = getelementptr inbounds nuw %class.anon, ptr %8, i32 0, i32 1
  %13 = load ptr, ptr %12, align 8, !tbaa !414
  call void @_ZNK4pbrt15SphericalCamera23GenerateRayDifferentialENS_12CameraSampleERNS_18SampledWavelengthsE(ptr dead_on_unwind writable sret(%"class.pstd::optional.10") align 8 %0, ptr noundef nonnull align 8 dereferenceable(900) %9, ptr noundef byval(%"struct.pbrt::CameraSample") align 8 %7, ptr noundef nonnull align 4 dereferenceable(32) %13)
  ret void
}

; Function Attrs: inlinehint mustprogress uwtable
define internal void @"_ZZNK4pbrt6Camera23GenerateRayDifferentialENS_12CameraSampleERNS_18SampledWavelengthsEENK3$_0clIPKNS_18OrthographicCameraEEEDaT_"(ptr dead_on_unwind noalias writable sret(%"class.pstd::optional.10") align 8 %0, ptr noundef nonnull align 8 dereferenceable(16) %1, ptr noundef %2) #10 align 2 {
  %4 = alloca ptr, align 8
  %5 = alloca ptr, align 8
  %6 = alloca ptr, align 8
  %7 = alloca %"struct.pbrt::CameraSample", align 8
  store ptr %0, ptr %4, align 8
  store ptr %1, ptr %5, align 8, !tbaa !57
  store ptr %2, ptr %6, align 8, !tbaa !176
  %8 = load ptr, ptr %5, align 8
  %9 = load ptr, ptr %6, align 8, !tbaa !176
  %10 = getelementptr inbounds nuw %class.anon, ptr %8, i32 0, i32 0
  %11 = load ptr, ptr %10, align 8, !tbaa !412
  call void @llvm.memcpy.p0.p0.i64(ptr align 4 %7, ptr align 4 %11, i64 24, i1 false)
  %12 = getelementptr inbounds nuw %class.anon, ptr %8, i32 0, i32 1
  %13 = load ptr, ptr %12, align 8, !tbaa !414
  call void @_ZNK4pbrt18OrthographicCamera23GenerateRayDifferentialENS_12CameraSampleERNS_18SampledWavelengthsE(ptr dead_on_unwind writable sret(%"class.pstd::optional.10") align 8 %0, ptr noundef nonnull align 8 dereferenceable(1440) %9, ptr noundef byval(%"struct.pbrt::CameraSample") align 8 %7, ptr noundef nonnull align 4 dereferenceable(32) %13)
  ret void
}

; Function Attrs: inlinehint mustprogress uwtable
define internal void @"_ZZNK4pbrt6Camera23GenerateRayDifferentialENS_12CameraSampleERNS_18SampledWavelengthsEENK3$_0clIPKNS_17PerspectiveCameraEEEDaT_"(ptr dead_on_unwind noalias writable sret(%"class.pstd::optional.10") align 8 %0, ptr noundef nonnull align 8 dereferenceable(16) %1, ptr noundef %2) #10 align 2 {
  %4 = alloca ptr, align 8
  %5 = alloca ptr, align 8
  %6 = alloca ptr, align 8
  %7 = alloca %"struct.pbrt::CameraSample", align 8
  store ptr %0, ptr %4, align 8
  store ptr %1, ptr %5, align 8, !tbaa !57
  store ptr %2, ptr %6, align 8, !tbaa !174
  %8 = load ptr, ptr %5, align 8
  %9 = load ptr, ptr %6, align 8, !tbaa !174
  %10 = getelementptr inbounds nuw %class.anon, ptr %8, i32 0, i32 0
  %11 = load ptr, ptr %10, align 8, !tbaa !412
  call void @llvm.memcpy.p0.p0.i64(ptr align 4 %7, ptr align 4 %11, i64 24, i1 false)
  %12 = getelementptr inbounds nuw %class.anon, ptr %8, i32 0, i32 1
  %13 = load ptr, ptr %12, align 8, !tbaa !414
  call void @_ZNK4pbrt17PerspectiveCamera23GenerateRayDifferentialENS_12CameraSampleERNS_18SampledWavelengthsE(ptr dead_on_unwind writable sret(%"class.pstd::optional.10") align 8 %0, ptr noundef nonnull align 8 dereferenceable(1448) %9, ptr noundef byval(%"struct.pbrt::CameraSample") align 8 %7, ptr noundef nonnull align 4 dereferenceable(32) %13)
  ret void
}

; Function Attrs: mustprogress uwtable
define internal void @"_ZN4pbrt6detail8DispatchIRZNKS_6Camera23GenerateRayDifferentialENS_12CameraSampleERNS_18SampledWavelengthsEE3$_0N4pstd8optionalINS_21CameraRayDifferentialEEENS_17PerspectiveCameraENS_18OrthographicCameraENS_15SphericalCameraENS_15RealisticCameraEEET0_OT_PKvi"(ptr dead_on_unwind noalias writable sret(%"class.pstd::optional.10") align 8 %0, ptr noundef nonnull align 8 dereferenceable(16) %1, ptr noundef %2, i32 noundef %3) #1 {
  %5 = alloca ptr, align 8
  %6 = alloca ptr, align 8
  %7 = alloca ptr, align 8
  %8 = alloca i32, align 4
  store ptr %0, ptr %5, align 8
  store ptr %1, ptr %6, align 8, !tbaa !57
  store ptr %2, ptr %7, align 8, !tbaa !57
  store i32 %3, ptr %8, align 4, !tbaa !48
  br label %9

9:                                                ; preds = %4
  br label %10

10:                                               ; preds = %9
  br label %11

11:                                               ; preds = %10
  br label %12

12:                                               ; preds = %11
  %13 = load i32, ptr %8, align 4, !tbaa !48
  switch i32 %13, label %23 [
    i32 0, label %14
    i32 1, label %17
    i32 2, label %20
  ]

14:                                               ; preds = %12
  %15 = load ptr, ptr %6, align 8, !tbaa !57
  %16 = load ptr, ptr %7, align 8, !tbaa !57
  call void @"_ZZNK4pbrt6Camera23GenerateRayDifferentialENS_12CameraSampleERNS_18SampledWavelengthsEENK3$_0clIPKNS_17PerspectiveCameraEEEDaT_"(ptr dead_on_unwind writable sret(%"class.pstd::optional.10") align 8 %0, ptr noundef nonnull align 8 dereferenceable(16) %15, ptr noundef %16)
  br label %26

17:                                               ; preds = %12
  %18 = load ptr, ptr %6, align 8, !tbaa !57
  %19 = load ptr, ptr %7, align 8, !tbaa !57
  call void @"_ZZNK4pbrt6Camera23GenerateRayDifferentialENS_12CameraSampleERNS_18SampledWavelengthsEENK3$_0clIPKNS_18OrthographicCameraEEEDaT_"(ptr dead_on_unwind writable sret(%"class.pstd::optional.10") align 8 %0, ptr noundef nonnull align 8 dereferenceable(16) %18, ptr noundef %19)
  br label %26

20:                                               ; preds = %12
  %21 = load ptr, ptr %6, align 8, !tbaa !57
  %22 = load ptr, ptr %7, align 8, !tbaa !57
  call void @"_ZZNK4pbrt6Camera23GenerateRayDifferentialENS_12CameraSampleERNS_18SampledWavelengthsEENK3$_0clIPKNS_15SphericalCameraEEEDaT_"(ptr dead_on_unwind writable sret(%"class.pstd::optional.10") align 8 %0, ptr noundef nonnull align 8 dereferenceable(16) %21, ptr noundef %22)
  br label %26

23:                                               ; preds = %12
  %24 = load ptr, ptr %6, align 8, !tbaa !57
  %25 = load ptr, ptr %7, align 8, !tbaa !57
  call void @"_ZZNK4pbrt6Camera23GenerateRayDifferentialENS_12CameraSampleERNS_18SampledWavelengthsEENK3$_0clIPKNS_15RealisticCameraEEEDaT_"(ptr dead_on_unwind writable sret(%"class.pstd::optional.10") align 8 %0, ptr noundef nonnull align 8 dereferenceable(16) %24, ptr noundef %25)
  br label %26

26:                                               ; preds = %23, %20, %17, %14
  ret void
}

; Function Attrs: mustprogress nounwind uwtable
define linkonce_odr dso_local noundef i32 @_ZNK4pbrt13TaggedPointerIJNS_17PerspectiveCameraENS_18OrthographicCameraENS_15SphericalCameraENS_15RealisticCameraEEE3TagEv(ptr noundef nonnull align 8 dereferenceable(8) %0) #6 comdat align 2 {
  %2 = alloca ptr, align 8
  store ptr %0, ptr %2, align 8, !tbaa !55
  %3 = load ptr, ptr %2, align 8
  %4 = getelementptr inbounds nuw %"class.pbrt::TaggedPointer", ptr %3, i32 0, i32 0
  %5 = load i64, ptr %4, align 8, !tbaa !75
  %6 = and i64 %5, -144115188075855872
  %7 = lshr i64 %6, 57
  %8 = trunc i64 %7 to i32
  ret i32 %8
}

; Function Attrs: mustprogress nounwind uwtable
define linkonce_odr dso_local noundef ptr @_ZNK4pbrt13TaggedPointerIJNS_17PerspectiveCameraENS_18OrthographicCameraENS_15SphericalCameraENS_15RealisticCameraEEE3ptrEv(ptr noundef nonnull align 8 dereferenceable(8) %0) #6 comdat align 2 {
  %2 = alloca ptr, align 8
  store ptr %0, ptr %2, align 8, !tbaa !55
  %3 = load ptr, ptr %2, align 8
  %4 = getelementptr inbounds nuw %"class.pbrt::TaggedPointer", ptr %3, i32 0, i32 0
  %5 = load i64, ptr %4, align 8, !tbaa !75
  %6 = and i64 %5, 144115188075855871
  %7 = inttoptr i64 %6 to ptr
  ret ptr %7
}

; Function Attrs: mustprogress uwtable
define internal void @"_ZNK4pbrt13TaggedPointerIJNS_17PerspectiveCameraENS_18OrthographicCameraENS_15SphericalCameraENS_15RealisticCameraEEE8DispatchIRZNKS_6Camera23GenerateRayDifferentialENS_12CameraSampleERNS_18SampledWavelengthsEE3$_0EEDcOT_"(ptr dead_on_unwind noalias writable sret(%"class.pstd::optional.10") align 8 %0, ptr noundef nonnull align 8 dereferenceable(8) %1, ptr noundef nonnull align 8 dereferenceable(16) %2) #1 align 2 {
  %4 = alloca ptr, align 8
  %5 = alloca ptr, align 8
  %6 = alloca ptr, align 8
  store ptr %0, ptr %4, align 8
  store ptr %1, ptr %5, align 8, !tbaa !55
  store ptr %2, ptr %6, align 8, !tbaa !57
  %7 = load ptr, ptr %5, align 8
  br label %8

8:                                                ; preds = %3
  br label %9

9:                                                ; preds = %8
  %10 = load ptr, ptr %6, align 8, !tbaa !57
  %11 = call noundef ptr @_ZNK4pbrt13TaggedPointerIJNS_17PerspectiveCameraENS_18OrthographicCameraENS_15SphericalCameraENS_15RealisticCameraEEE3ptrEv(ptr noundef nonnull align 8 dereferenceable(8) %7)
  %12 = call noundef i32 @_ZNK4pbrt13TaggedPointerIJNS_17PerspectiveCameraENS_18OrthographicCameraENS_15SphericalCameraENS_15RealisticCameraEEE3TagEv(ptr noundef nonnull align 8 dereferenceable(8) %7)
  %13 = sub i32 %12, 1
  call void @"_ZN4pbrt6detail8DispatchIRZNKS_6Camera23GenerateRayDifferentialENS_12CameraSampleERNS_18SampledWavelengthsEE3$_0N4pstd8optionalINS_21CameraRayDifferentialEEENS_17PerspectiveCameraENS_18OrthographicCameraENS_15SphericalCameraENS_15RealisticCameraEEET0_OT_PKvi"(ptr dead_on_unwind writable sret(%"class.pstd::optional.10") align 8 %0, ptr noundef nonnull align 8 dereferenceable(16) %10, ptr noundef %11, i32 noundef %13)
  ret void
}

; Function Attrs: mustprogress uwtable
define dso_local void @_ZNK4pbrt6Camera23GenerateRayDifferentialENS_12CameraSampleERNS_18SampledWavelengthsE(ptr dead_on_unwind noalias writable sret(%"class.pstd::optional.10") align 8 %0, ptr noundef nonnull align 8 dereferenceable(8) %1, ptr noundef byval(%"struct.pbrt::CameraSample") align 8 %2, ptr noundef nonnull align 4 dereferenceable(32) %3) #1 align 2 {
  %5 = alloca ptr, align 8
  %6 = alloca ptr, align 8
  %7 = alloca ptr, align 8
  %8 = alloca %class.anon, align 8
  store ptr %0, ptr %5, align 8
  store ptr %1, ptr %6, align 8, !tbaa !49
  store ptr %3, ptr %7, align 8, !tbaa !51
  %9 = load ptr, ptr %6, align 8
  call void @llvm.lifetime.start.p0(i64 16, ptr %8) #15
  %10 = getelementptr inbounds nuw %class.anon, ptr %8, i32 0, i32 0
  store ptr %2, ptr %10, align 8, !tbaa !53
  %11 = getelementptr inbounds nuw %class.anon, ptr %8, i32 0, i32 1
  %12 = load ptr, ptr %7, align 8, !tbaa !51
  store ptr %12, ptr %11, align 8, !tbaa !51
  call void @"_ZNK4pbrt13TaggedPointerIJNS_17PerspectiveCameraENS_18OrthographicCameraENS_15SphericalCameraENS_15RealisticCameraEEE8DispatchIRZNKS_6Camera23GenerateRayDifferentialENS_12CameraSampleERNS_18SampledWavelengthsEE3$_0EEDcOT_"(ptr dead_on_unwind writable sret(%"class.pstd::optional.10") align 8 %0, ptr noundef nonnull align 8 dereferenceable(8) %9, ptr noundef nonnull align 8 dereferenceable(16) %8)
  call void @llvm.lifetime.end.p0(i64 16, ptr %8) #15
  ret void
}