; Function Attrs: mustprogress uwtable
define dso_local void @_ZNK4pbrt6Camera23GenerateRayDifferentialENS_12CameraSampleERNS_18SampledWavelengthsE(ptr dead_on_unwind noalias writable writeonly sret(%"class.pstd::optional.10") align 8 captures(none) %0, ptr noundef nonnull readonly align 8 captures(none) dereferenceable(8) %1, ptr noundef readonly byval(%"struct.pbrt::CameraSample") align 8 captures(none) %2, ptr noundef nonnull readnone align 4 captures(none) dereferenceable(32) %3) local_unnamed_addr #2 align 2 {
  %5 = alloca %"class.pbrt::Camera", align 8
  %6 = alloca %"class.pbrt::Camera", align 8
  %.val = load i64, ptr %1, align 8, !tbaa !52
  %7 = and i64 %.val, 144115188075855871
  %8 = inttoptr i64 %7 to ptr
  %9 = lshr i64 %.val, 57
  %10 = trunc nuw nsw i64 %9 to i32
  switch i32 %10, label %15 [
    i32 1, label %11
    i32 2, label %12
    i32 3, label %13
  ]

11:                                               ; preds = %4
  tail call void @_ZNK4pbrt17PerspectiveCamera23GenerateRayDifferentialENS_12CameraSampleERNS_18SampledWavelengthsE(ptr dead_on_unwind writable sret(%"class.pstd::optional.10") align 8 %0, ptr noundef nonnull align 8 dereferenceable(1448) %8, ptr noundef nonnull byval(%"struct.pbrt::CameraSample") align 8 %2, ptr nonnull readnone align 4 poison)
  br label %"_ZNK4pbrt13TaggedPointerIJNS_17PerspectiveCameraENS_18OrthographicCameraENS_15SphericalCameraENS_15RealisticCameraEEE8DispatchIRZNKS_6Camera23GenerateRayDifferentialENS_12CameraSampleERNS_18SampledWavelengthsEE3$_0EEDcOT_.exit"

12:                                               ; preds = %4
  tail call void @_ZNK4pbrt18OrthographicCamera23GenerateRayDifferentialENS_12CameraSampleERNS_18SampledWavelengthsE(ptr dead_on_unwind writable sret(%"class.pstd::optional.10") align 8 %0, ptr noundef nonnull align 8 dereferenceable(1440) %8, ptr noundef nonnull byval(%"struct.pbrt::CameraSample") align 8 %2, ptr nonnull readnone align 4 poison)
  br label %"_ZNK4pbrt13TaggedPointerIJNS_17PerspectiveCameraENS_18OrthographicCameraENS_15SphericalCameraENS_15RealisticCameraEEE8DispatchIRZNKS_6Camera23GenerateRayDifferentialENS_12CameraSampleERNS_18SampledWavelengthsEE3$_0EEDcOT_.exit"

13:                                               ; preds = %4
  call void @llvm.lifetime.start.p0(i64 8, ptr nonnull %6), !noalias !54
  %14 = or disjoint i64 %7, 432345564227567616
  store i64 %14, ptr %6, align 8, !tbaa !52, !noalias !61
  call void @_ZN4pbrt10CameraBase23GenerateRayDifferentialENS_6CameraENS_12CameraSampleERNS_18SampledWavelengthsE(ptr dead_on_unwind writable sret(%"class.pstd::optional.10") align 8 %0, ptr noundef nonnull %6, ptr noundef nonnull byval(%"struct.pbrt::CameraSample") align 8 %2, ptr noundef nonnull readnone align 4 dereferenceable(32) %3)
  call void @llvm.lifetime.end.p0(i64 8, ptr nonnull %6), !noalias !54
  br label %"_ZNK4pbrt13TaggedPointerIJNS_17PerspectiveCameraENS_18OrthographicCameraENS_15SphericalCameraENS_15RealisticCameraEEE8DispatchIRZNKS_6Camera23GenerateRayDifferentialENS_12CameraSampleERNS_18SampledWavelengthsEE3$_0EEDcOT_.exit"

15:                                               ; preds = %4
  call void @llvm.lifetime.start.p0(i64 8, ptr nonnull %5), !noalias !64
  %16 = or disjoint i64 %7, 576460752303423488
  store i64 %16, ptr %5, align 8, !tbaa !52, !noalias !67
  call void @_ZN4pbrt10CameraBase23GenerateRayDifferentialENS_6CameraENS_12CameraSampleERNS_18SampledWavelengthsE(ptr dead_on_unwind writable sret(%"class.pstd::optional.10") align 8 %0, ptr noundef nonnull %5, ptr noundef nonnull byval(%"struct.pbrt::CameraSample") align 8 %2, ptr noundef nonnull readnone align 4 dereferenceable(32) %3)
  call void @llvm.lifetime.end.p0(i64 8, ptr nonnull %5), !noalias !64
  br label %"_ZNK4pbrt13TaggedPointerIJNS_17PerspectiveCameraENS_18OrthographicCameraENS_15SphericalCameraENS_15RealisticCameraEEE8DispatchIRZNKS_6Camera23GenerateRayDifferentialENS_12CameraSampleERNS_18SampledWavelengthsEE3$_0EEDcOT_.exit"

"_ZNK4pbrt13TaggedPointerIJNS_17PerspectiveCameraENS_18OrthographicCameraENS_15SphericalCameraENS_15RealisticCameraEEE8DispatchIRZNKS_6Camera23GenerateRayDifferentialENS_12CameraSampleERNS_18SampledWavelengthsEE3$_0EEDcOT_.exit": ; preds = %11, %12, %13, %15
  ret void
}